target datalayout = "e-m:e-p270:32:32-p271:32:32-p272:64:64-i64:64-i128:128-f80:128-n8:16:32:64-S128"
target triple = "x86_64-unknown-linux-gnu"

%struct._GString = type { ptr, i64, i64 }

@.str.114 = private unnamed_addr constant [5 x i8] c"FIS:\00", align 1
@.str.115 = private unnamed_addr constant [10 x i8] c"\0A0x%02x: \00", align 1
@.str.116 = private unnamed_addr constant [6 x i8] c"%02x \00", align 1

; Function Attrs: nounwind sspstrong uwtable
define internal ptr @g_string_append_c_inline(ptr noundef %gstring, i8 noundef signext %c) #0 {
entry:
  %gstring.addr = alloca ptr, align 8
  %c.addr = alloca i8, align 1
  store ptr %gstring, ptr %gstring.addr, align 8
  store i8 %c, ptr %c.addr, align 1
  %0 = load ptr, ptr %gstring.addr, align 8
  %len = getelementptr inbounds %struct._GString, ptr %0, i32 0, i32 1
  %1 = load i64, ptr %len, align 8
  %add = add i64 %1, 1
  %2 = load ptr, ptr %gstring.addr, align 8
  %allocated_len = getelementptr inbounds %struct._GString, ptr %2, i32 0, i32 2
  %3 = load i64, ptr %allocated_len, align 8
  %cmp = icmp ult i64 %add, %3
  br i1 %cmp, label %if.then, label %if.else

if.then:                                          ; preds = %entry
  %4 = load i8, ptr %c.addr, align 1
  %5 = load ptr, ptr %gstring.addr, align 8
  %str = getelementptr inbounds %struct._GString, ptr %5, i32 0, i32 0
  %6 = load ptr, ptr %str, align 8
  %7 = load ptr, ptr %gstring.addr, align 8
  %len1 = getelementptr inbounds %struct._GString, ptr %7, i32 0, i32 1
  %8 = load i64, ptr %len1, align 8
  %inc = add i64 %8, 1
  store i64 %inc, ptr %len1, align 8
  %arrayidx = getelementptr i8, ptr %6, i64 %8
  store i8 %4, ptr %arrayidx, align 1
  %9 = load ptr, ptr %gstring.addr, align 8
  %str2 = getelementptr inbounds %struct._GString, ptr %9, i32 0, i32 0
  %10 = load ptr, ptr %str2, align 8
  %11 = load ptr, ptr %gstring.addr, align 8
  %len3 = getelementptr inbounds %struct._GString, ptr %11, i32 0, i32 1
  %12 = load i64, ptr %len3, align 8
  %arrayidx4 = getelementptr i8, ptr %10, i64 %12
  store i8 0, ptr %arrayidx4, align 1
  br label %if.end

if.else:                                          ; preds = %entry
  %13 = load ptr, ptr %gstring.addr, align 8
  %14 = load i8, ptr %c.addr, align 1
  %call = call ptr @g_string_insert_c(ptr noundef %13, i64 noundef -1, i8 noundef signext %14)
  br label %if.end

if.end:                                           ; preds = %if.else, %if.then
  %15 = load ptr, ptr %gstring.addr, align 8
  ret ptr %15
}

; Function Attrs: nounwind sspstrong uwtable
define internal ptr @ahci_pretty_buffer_fis(ptr noundef %fis, i32 noundef %cmd_len) #0 {
entry:
  %fis.addr = alloca ptr, align 8
  %cmd_len.addr = alloca i32, align 4
  %i = alloca i32, align 4
  %s = alloca ptr, align 8
  store ptr %fis, ptr %fis.addr, align 8
  store i32 %cmd_len, ptr %cmd_len.addr, align 4
  %call = call ptr @g_string_new(ptr noundef @.str.114)
  store ptr %call, ptr %s, align 8
  store i32 0, ptr %i, align 4
  br label %for.cond

for.cond:                                         ; preds = %for.inc, %entry
  %0 = load i32, ptr %i, align 4
  %1 = load i32, ptr %cmd_len.addr, align 4
  %cmp = icmp slt i32 %0, %1
  br i1 %cmp, label %for.body, label %for.end

for.body:                                         ; preds = %for.cond
  %2 = load i32, ptr %i, align 4
  %and = and i32 %2, 15
  %cmp1 = icmp eq i32 %and, 0
  br i1 %cmp1, label %if.then, label %if.end

if.then:                                          ; preds = %for.body
  %3 = load ptr, ptr %s, align 8
  %4 = load i32, ptr %i, align 4
  call void (ptr, ptr, ...) @g_string_append_printf(ptr noundef %3, ptr noundef @.str.115, i32 noundef %4)
  br label %if.end

if.end:                                           ; preds = %if.then, %for.body
  %5 = load ptr, ptr %s, align 8
  %6 = load ptr, ptr %fis.addr, align 8
  %7 = load i32, ptr %i, align 4
  %idxprom = sext i32 %7 to i64
  %arrayidx = getelementptr i8, ptr %6, i64 %idxprom
  %8 = load i8, ptr %arrayidx, align 1
  %conv = zext i8 %8 to i32
  call void (ptr, ptr, ...) @g_string_append_printf(ptr noundef %5, ptr noundef @.str.116, i32 noundef %conv)
  br label %for.inc

for.inc:                                          ; preds = %if.end
  %9 = load i32, ptr %i, align 4
  %inc = add i32 %9, 1
  store i32 %inc, ptr %i, align 4
  br label %for.cond, !llvm.loop !18

for.end:                                          ; preds = %for.cond
  %10 = load ptr, ptr %s, align 8
  %call2 = call ptr @g_string_append_c_inline(ptr noundef %10, i8 noundef signext 10)
  %11 = load ptr, ptr %s, align 8
  %call3 = call ptr @g_string_free(ptr noundef %11, i32 noundef 0)
  ret ptr %call3
}