; Function Attrs: nounwind sspstrong uwtable
define internal fastcc ptr @ahci_pretty_buffer_fis(ptr noundef readonly captures(none) %fis, i32 noundef range(i32 16, 129) %cmd_len) unnamed_addr #0 {
entry:
  %call = tail call ptr @g_string_new(ptr noundef nonnull @.str.114) #12
  %wide.trip.count = zext nneg i32 %cmd_len to i64
  br label %for.body

for.body:                                         ; preds = %entry, %if.end
  %indvars.iv = phi i64 [ 0, %entry ], [ %indvars.iv.next, %if.end ]
  %0 = trunc nuw nsw i64 %indvars.iv to i32
  %and = and i32 %0, 15
  %cmp1 = icmp eq i32 %and, 0
  br i1 %cmp1, label %if.then, label %if.end

if.then:                                          ; preds = %for.body
  tail call void (ptr, ptr, ...) @g_string_append_printf(ptr noundef %call, ptr noundef nonnull @.str.115, i32 noundef %0) #12
  br label %if.end

if.end:                                           ; preds = %if.then, %for.body
  %arrayidx = getelementptr i8, ptr %fis, i64 %indvars.iv
  %1 = load i8, ptr %arrayidx, align 1
  %conv = zext i8 %1 to i32
  tail call void (ptr, ptr, ...) @g_string_append_printf(ptr noundef %call, ptr noundef nonnull @.str.116, i32 noundef %conv) #12
  %indvars.iv.next = add nuw nsw i64 %indvars.iv, 1
  %exitcond.not = icmp eq i64 %indvars.iv.next, %wide.trip.count
  br i1 %exitcond.not, label %for.end, label %for.body, !llvm.loop !16

for.end:                                          ; preds = %if.end
  %len.i = getelementptr inbounds nuw i8, ptr %call, i64 8
  %2 = load i64, ptr %len.i, align 8
  %add.i = add i64 %2, 1
  %allocated_len.i = getelementptr inbounds nuw i8, ptr %call, i64 16
  %3 = load i64, ptr %allocated_len.i, align 8
  %cmp.i = icmp ult i64 %add.i, %3
  br i1 %cmp.i, label %if.then.i, label %if.else.i

if.then.i:                                        ; preds = %for.end
  %4 = load ptr, ptr %call, align 8
  store i64 %add.i, ptr %len.i, align 8
  %arrayidx.i = getelementptr i8, ptr %4, i64 %2
  store i8 10, ptr %arrayidx.i, align 1
  %5 = load ptr, ptr %call, align 8
  %6 = load i64, ptr %len.i, align 8
  %arrayidx4.i = getelementptr i8, ptr %5, i64 %6
  store i8 0, ptr %arrayidx4.i, align 1
  br label %g_string_append_c_inline.exit

if.else.i:                                        ; preds = %for.end
  %call.i = tail call ptr @g_string_insert_c(ptr noundef nonnull %call, i64 noundef -1, i8 noundef signext 10) #12
  br label %g_string_append_c_inline.exit

g_string_append_c_inline.exit:                    ; preds = %if.then.i, %if.else.i
  %call3 = tail call ptr @g_string_free(ptr noundef nonnull %call, i32 noundef 0) #12
  ret ptr %call3
}